; Function Attrs: nounwind uwtable
define ptr @l_Int_lcm(ptr noundef %0, ptr noundef %1) local_unnamed_addr #0 {
  %3 = ptrtoint ptr %0 to i64
  %4 = and i64 %3, 1
  %.not.i.i = icmp eq i64 %4, 0
  br i1 %.not.i.i, label %lean_int_lt.exit.i, label %5, !prof !4

5:                                                ; preds = %2
  %6 = and i64 %3, 4294967296
  %.not.i10 = icmp eq i64 %6, 0
  br i1 %.not.i10, label %lean_nat_abs.exit, label %8

lean_int_lt.exit.i:                               ; preds = %2
  %7 = tail call zeroext i1 @lean_int_big_lt(ptr noundef %0, ptr noundef nonnull inttoptr (i64 1 to ptr)) #4
  br i1 %7, label %19, label %23

8:                                                ; preds = %5
  %9 = shl i64 %3, 31
  %10 = ashr i64 %9, 32
  %11 = sub nsw i64 0, %10
  %12 = icmp sgt i64 %10, -2147483648
  br i1 %12, label %13, label %17, !prof !5

13:                                               ; preds = %8
  %14 = shl nuw nsw i64 %11, 1
  %15 = or disjoint i64 %14, 1
  %16 = inttoptr i64 %15 to ptr
  br label %lean_int_neg.exit.i

17:                                               ; preds = %8
  %18 = tail call ptr @lean_big_int64_to_int(i64 noundef range(i64 -2147483647, 2147483649) %11) #4
  br label %lean_int_neg.exit.i

19:                                               ; preds = %lean_int_lt.exit.i
  %20 = tail call ptr @lean_int_big_neg(ptr noundef %0) #4
  br label %lean_int_neg.exit.i

lean_int_neg.exit.i:                              ; preds = %19, %17, %13
  %.0.i6.i = phi ptr [ %20, %19 ], [ %16, %13 ], [ %18, %17 ]
  %21 = ptrtoint ptr %.0.i6.i to i64
  %22 = and i64 %21, 1
  %.not.i7.i = icmp eq i64 %22, 0
  br i1 %.not.i7.i, label %lean_int_to_nat.exit.sink.split.i, label %lean_nat_abs.exit

23:                                               ; preds = %lean_int_lt.exit.i
  %.val.i.i = load i32, ptr %0, align 4, !tbaa !6
  %24 = icmp sgt i32 %.val.i.i, 0
  br i1 %24, label %25, label %27, !prof !5

25:                                               ; preds = %23
  %26 = add nuw i32 %.val.i.i, 1
  store i32 %26, ptr %0, align 4, !tbaa !6
  br label %lean_int_to_nat.exit.sink.split.i

27:                                               ; preds = %23
  %.not.i9.i = icmp eq i32 %.val.i.i, 0
  br i1 %.not.i9.i, label %lean_int_to_nat.exit.sink.split.i, label %28

28:                                               ; preds = %27
  tail call void @lean_inc_ref_cold(ptr noundef nonnull %0) #4
  br label %lean_int_to_nat.exit.sink.split.i

lean_int_to_nat.exit.sink.split.i:                ; preds = %28, %27, %25, %lean_int_neg.exit.i
  %.sink.i = phi ptr [ %.0.i6.i, %lean_int_neg.exit.i ], [ %0, %28 ], [ %0, %27 ], [ %0, %25 ]
  %29 = tail call ptr @lean_big_int_to_nat(ptr noundef %.sink.i) #4
  br label %lean_nat_abs.exit

lean_nat_abs.exit:                                ; preds = %5, %lean_int_neg.exit.i, %lean_int_to_nat.exit.sink.split.i
  %.0.i = phi ptr [ %.0.i6.i, %lean_int_neg.exit.i ], [ %0, %5 ], [ %29, %lean_int_to_nat.exit.sink.split.i ]
  %30 = ptrtoint ptr %1 to i64
  %31 = and i64 %30, 1
  %.not.i.i11 = icmp eq i64 %31, 0
  br i1 %.not.i.i11, label %lean_int_lt.exit.i19, label %32, !prof !4

32:                                               ; preds = %lean_nat_abs.exit
  %33 = and i64 %30, 4294967296
  %.not.i12 = icmp eq i64 %33, 0
  br i1 %.not.i12, label %lean_nat_abs.exit22, label %35

lean_int_lt.exit.i19:                             ; preds = %lean_nat_abs.exit
  %34 = tail call zeroext i1 @lean_int_big_lt(ptr noundef %1, ptr noundef nonnull inttoptr (i64 1 to ptr)) #4
  br i1 %34, label %46, label %50

35:                                               ; preds = %32
  %36 = shl i64 %30, 31
  %37 = ashr i64 %36, 32
  %38 = sub nsw i64 0, %37
  %39 = icmp sgt i64 %37, -2147483648
  br i1 %39, label %40, label %44, !prof !5

40:                                               ; preds = %35
  %41 = shl nuw nsw i64 %38, 1
  %42 = or disjoint i64 %41, 1
  %43 = inttoptr i64 %42 to ptr
  br label %lean_int_neg.exit.i13

44:                                               ; preds = %35
  %45 = tail call ptr @lean_big_int64_to_int(i64 noundef range(i64 -2147483647, 2147483649) %38) #4
  br label %lean_int_neg.exit.i13

46:                                               ; preds = %lean_int_lt.exit.i19
  %47 = tail call ptr @lean_int_big_neg(ptr noundef %1) #4
  br label %lean_int_neg.exit.i13

lean_int_neg.exit.i13:                            ; preds = %46, %44, %40
  %.0.i6.i14 = phi ptr [ %47, %46 ], [ %43, %40 ], [ %45, %44 ]
  %48 = ptrtoint ptr %.0.i6.i14 to i64
  %49 = and i64 %48, 1
  %.not.i7.i15 = icmp eq i64 %49, 0
  br i1 %.not.i7.i15, label %lean_int_to_nat.exit.sink.split.i17, label %lean_nat_abs.exit22

50:                                               ; preds = %lean_int_lt.exit.i19
  %.val.i.i20 = load i32, ptr %1, align 4, !tbaa !6
  %51 = icmp sgt i32 %.val.i.i20, 0
  br i1 %51, label %52, label %54, !prof !5

52:                                               ; preds = %50
  %53 = add nuw i32 %.val.i.i20, 1
  store i32 %53, ptr %1, align 4, !tbaa !6
  br label %lean_int_to_nat.exit.sink.split.i17

54:                                               ; preds = %50
  %.not.i9.i21 = icmp eq i32 %.val.i.i20, 0
  br i1 %.not.i9.i21, label %lean_int_to_nat.exit.sink.split.i17, label %55

55:                                               ; preds = %54
  tail call void @lean_inc_ref_cold(ptr noundef nonnull %1) #4
  br label %lean_int_to_nat.exit.sink.split.i17

lean_int_to_nat.exit.sink.split.i17:              ; preds = %55, %54, %52, %lean_int_neg.exit.i13
  %.sink.i18 = phi ptr [ %.0.i6.i14, %lean_int_neg.exit.i13 ], [ %1, %55 ], [ %1, %54 ], [ %1, %52 ]
  %56 = tail call ptr @lean_big_int_to_nat(ptr noundef %.sink.i18) #4
  %.pre = ptrtoint ptr %56 to i64
  br label %lean_nat_abs.exit22

lean_nat_abs.exit22:                              ; preds = %32, %lean_int_neg.exit.i13, %lean_int_to_nat.exit.sink.split.i17
  %.pre-phi = phi i64 [ %30, %32 ], [ %48, %lean_int_neg.exit.i13 ], [ %.pre, %lean_int_to_nat.exit.sink.split.i17 ]
  %.0.i16 = phi ptr [ %1, %32 ], [ %.0.i6.i14, %lean_int_neg.exit.i13 ], [ %56, %lean_int_to_nat.exit.sink.split.i17 ]
  %57 = tail call ptr @l_Nat_lcm(ptr noundef %.0.i, ptr noundef %.0.i16) #4
  %58 = and i64 %.pre-phi, 1
  %.not = icmp eq i64 %58, 0
  br i1 %.not, label %59, label %lean_dec.exit7

59:                                               ; preds = %lean_nat_abs.exit22
  %60 = load i32, ptr %.0.i16, align 4, !tbaa !6
  %61 = icmp sgt i32 %60, 1
  br i1 %61, label %62, label %64, !prof !5

62:                                               ; preds = %59
  %63 = add nsw i32 %60, -1
  store i32 %63, ptr %.0.i16, align 4, !tbaa !6
  br label %lean_dec.exit7

64:                                               ; preds = %59
  %.not.i = icmp eq i32 %60, 0
  br i1 %.not.i, label %lean_dec.exit7, label %65

65:                                               ; preds = %64
  tail call void @lean_dec_ref_cold(ptr noundef nonnull %.0.i16) #4
  br label %lean_dec.exit7

lean_dec.exit7:                                   ; preds = %65, %64, %62, %lean_nat_abs.exit22
  %66 = ptrtoint ptr %.0.i to i64
  %67 = and i64 %66, 1
  %.not23 = icmp eq i64 %67, 0
  br i1 %.not23, label %68, label %lean_dec.exit

68:                                               ; preds = %lean_dec.exit7
  %69 = load i32, ptr %.0.i, align 4, !tbaa !6
  %70 = icmp sgt i32 %69, 1
  br i1 %70, label %71, label %73, !prof !5

71:                                               ; preds = %68
  %72 = add nsw i32 %69, -1
  store i32 %72, ptr %.0.i, align 4, !tbaa !6
  br label %lean_dec.exit

73:                                               ; preds = %68
  %.not.i8 = icmp eq i32 %69, 0
  br i1 %.not.i8, label %lean_dec.exit, label %74

74:                                               ; preds = %73
  tail call void @lean_dec_ref_cold(ptr noundef nonnull %.0.i) #4
  br label %lean_dec.exit

lean_dec.exit:                                    ; preds = %74, %73, %71, %lean_dec.exit7
  ret ptr %57
}